target datalayout = "e-m:e-p270:32:32-p271:32:32-p272:64:64-i64:64-i128:128-f80:128-n8:16:32:64-S128"
target triple = "x86_64-pc-linux-gnu"

%struct.DdManager = type { %struct.DdNode, ptr, ptr, ptr, ptr, ptr, ptr, ptr, i32, i32, double, double, double, i32, i32, i32, i32, i32, i32, ptr, ptr, %struct.DdSubtable, i32, i32, i32, i32, i32, i32, i32, double, i32, i32, i32, ptr, i64, double, i32, ptr, ptr, ptr, ptr, ptr, ptr, ptr, i32, ptr, ptr, ptr, ptr, ptr, ptr, i32, i32, i32, double, i32, i32, i32, i32, double, double, i32, i32, i32, i32, i32, i32, i32, i32, i32, ptr, ptr, i32, i32, i32, i32, i32, i32, ptr, ptr, ptr, ptr, ptr, ptr, ptr, ptr, i32, i64, i64, i64, i32, i64, i64, double, double, double, double, double, double, i32, ptr, ptr, i64 }
%struct.DdNode = type { i32, i32, ptr, %union.anon, i64 }
%union.anon = type { %struct.DdChildren }
%struct.DdChildren = type { ptr, ptr }
%struct.DdSubtable = type { ptr, i32, i32, i32, i32, i32, i32, i32, i32, i32, i32, i32 }

; Function Attrs: nounwind uwtable
define ptr @Cudd_zddCoverPathToString(ptr noundef %0, ptr noundef %1, ptr noundef %2) #0 {
  %4 = alloca ptr, align 8
  %5 = alloca ptr, align 8
  %6 = alloca ptr, align 8
  %7 = alloca ptr, align 8
  %8 = alloca i32, align 4
  %9 = alloca i32, align 4
  %10 = alloca ptr, align 8
  %11 = alloca i32, align 4
  store ptr %0, ptr %5, align 8
  store ptr %1, ptr %6, align 8
  store ptr %2, ptr %7, align 8
  %12 = load ptr, ptr %5, align 8
  %13 = getelementptr inbounds %struct.DdManager, ptr %12, i32 0, i32 16
  %14 = load i32, ptr %13, align 4
  store i32 %14, ptr %8, align 4
  %15 = load i32, ptr %8, align 4
  %16 = and i32 %15, 1
  %17 = icmp ne i32 %16, 0
  br i1 %17, label %18, label %19

18:                                               ; preds = %3
  store ptr null, ptr %4, align 8
  br label %88

19:                                               ; preds = %3
  %20 = load i32, ptr %8, align 4
  %21 = ashr i32 %20, 1
  store i32 %21, ptr %8, align 4
  %22 = load ptr, ptr %7, align 8
  %23 = icmp eq ptr %22, null
  br i1 %23, label %24, label %34

24:                                               ; preds = %19
  %25 = load i32, ptr %8, align 4
  %26 = add nsw i32 %25, 1
  %27 = sext i32 %26 to i64
  %28 = mul i64 1, %27
  %29 = call noalias ptr @malloc(i64 noundef %28) #4
  store ptr %29, ptr %10, align 8
  %30 = load ptr, ptr %10, align 8
  %31 = icmp eq ptr %30, null
  br i1 %31, label %32, label %33

32:                                               ; preds = %24
  store ptr null, ptr %4, align 8
  br label %88

33:                                               ; preds = %24
  br label %36

34:                                               ; preds = %19
  %35 = load ptr, ptr %7, align 8
  store ptr %35, ptr %10, align 8
  br label %36

36:                                               ; preds = %34, %33
  store i32 0, ptr %9, align 4
  br label %37

37:                                               ; preds = %79, %36
  %38 = load i32, ptr %9, align 4
  %39 = load i32, ptr %8, align 4
  %40 = icmp slt i32 %38, %39
  br i1 %40, label %41, label %82

41:                                               ; preds = %37
  %42 = load ptr, ptr %6, align 8
  %43 = load i32, ptr %9, align 4
  %44 = mul nsw i32 2, %43
  %45 = sext i32 %44 to i64
  %46 = getelementptr inbounds i32, ptr %42, i64 %45
  %47 = load i32, ptr %46, align 4
  %48 = shl i32 %47, 2
  %49 = load ptr, ptr %6, align 8
  %50 = load i32, ptr %9, align 4
  %51 = mul nsw i32 2, %50
  %52 = add nsw i32 %51, 1
  %53 = sext i32 %52 to i64
  %54 = getelementptr inbounds i32, ptr %49, i64 %53
  %55 = load i32, ptr %54, align 4
  %56 = or i32 %48, %55
  store i32 %56, ptr %11, align 4
  %57 = load i32, ptr %11, align 4
  switch i32 %57, label %73 [
    i32 0, label %58
    i32 2, label %58
    i32 8, label %58
    i32 10, label %58
    i32 1, label %63
    i32 9, label %63
    i32 4, label %68
    i32 6, label %68
  ]

58:                                               ; preds = %41, %41, %41, %41
  %59 = load ptr, ptr %10, align 8
  %60 = load i32, ptr %9, align 4
  %61 = sext i32 %60 to i64
  %62 = getelementptr inbounds i8, ptr %59, i64 %61
  store i8 45, ptr %62, align 1
  br label %78

63:                                               ; preds = %41, %41
  %64 = load ptr, ptr %10, align 8
  %65 = load i32, ptr %9, align 4
  %66 = sext i32 %65 to i64
  %67 = getelementptr inbounds i8, ptr %64, i64 %66
  store i8 48, ptr %67, align 1
  br label %78

68:                                               ; preds = %41, %41
  %69 = load ptr, ptr %10, align 8
  %70 = load i32, ptr %9, align 4
  %71 = sext i32 %70 to i64
  %72 = getelementptr inbounds i8, ptr %69, i64 %71
  store i8 49, ptr %72, align 1
  br label %78

73:                                               ; preds = %41
  %74 = load ptr, ptr %10, align 8
  %75 = load i32, ptr %9, align 4
  %76 = sext i32 %75 to i64
  %77 = getelementptr inbounds i8, ptr %74, i64 %76
  store i8 63, ptr %77, align 1
  br label %78

78:                                               ; preds = %73, %68, %63, %58
  br label %79

79:                                               ; preds = %78
  %80 = load i32, ptr %9, align 4
  %81 = add nsw i32 %80, 1
  store i32 %81, ptr %9, align 4
  br label %37, !llvm.loop !11

82:                                               ; preds = %37
  %83 = load ptr, ptr %10, align 8
  %84 = load i32, ptr %8, align 4
  %85 = sext i32 %84 to i64
  %86 = getelementptr inbounds i8, ptr %83, i64 %85
  store i8 0, ptr %86, align 1
  %87 = load ptr, ptr %10, align 8
  store ptr %87, ptr %4, align 8
  br label %88

88:                                               ; preds = %82, %32, %18
  %89 = load ptr, ptr %4, align 8
  ret ptr %89
}