; Function Attrs: nofree nounwind memory(write, argmem: readwrite, inaccessiblemem: readwrite) uwtable
define noundef ptr @Cudd_zddCoverPathToString(ptr noundef readonly captures(none) %0, ptr noundef readonly captures(none) %1, ptr noundef writeonly %2) local_unnamed_addr #7 {
  %4 = getelementptr inbounds nuw i8, ptr %0, i64 140
  %5 = load i32, ptr %4, align 4
  %6 = and i32 %5, 1
  %.not = icmp eq i32 %6, 0
  br i1 %.not, label %7, label %31

7:                                                ; preds = %3
  %8 = ashr exact i32 %5, 1
  %9 = icmp eq ptr %2, null
  br i1 %9, label %10, label %15

10:                                               ; preds = %7
  %11 = add nsw i32 %8, 1
  %12 = sext i32 %11 to i64
  %13 = tail call noalias ptr @malloc(i64 noundef %12) #10
  %14 = icmp eq ptr %13, null
  br i1 %14, label %31, label %15

15:                                               ; preds = %7, %10
  %.026 = phi ptr [ %13, %10 ], [ %2, %7 ]
  %16 = icmp sgt i32 %8, 0
  br i1 %16, label %.lr.ph.preheader, label %._crit_edge

.lr.ph.preheader:                                 ; preds = %15
  %wide.trip.count = zext nneg i32 %8 to i64
  br label %.lr.ph

.lr.ph:                                           ; preds = %.lr.ph.preheader, %27
  %indvars.iv = phi i64 [ 0, %.lr.ph.preheader ], [ %indvars.iv.next, %27 ]
  %17 = shl nuw nsw i64 %indvars.iv, 1
  %18 = getelementptr inbounds nuw i32, ptr %1, i64 %17
  %19 = load i32, ptr %18, align 4
  %20 = shl i32 %19, 2
  %21 = or disjoint i64 %17, 1
  %22 = getelementptr inbounds nuw i32, ptr %1, i64 %21
  %23 = load i32, ptr %22, align 4
  %24 = or i32 %20, %23
  %25 = icmp ult i32 %24, 11
  br i1 %25, label %switch.lookup, label %27

switch.lookup:                                    ; preds = %.lr.ph
  %26 = zext nneg i32 %24 to i64
  %switch.gep = getelementptr inbounds nuw [11 x i8], ptr @switch.table.Cudd_zddCoverPathToString, i64 0, i64 %26
  %switch.load = load i8, ptr %switch.gep, align 1
  br label %27

27:                                               ; preds = %.lr.ph, %switch.lookup
  %.sink = phi i8 [ %switch.load, %switch.lookup ], [ 63, %.lr.ph ]
  %28 = getelementptr inbounds nuw i8, ptr %.026, i64 %indvars.iv
  store i8 %.sink, ptr %28, align 1
  %indvars.iv.next = add nuw nsw i64 %indvars.iv, 1
  %exitcond.not = icmp eq i64 %indvars.iv.next, %wide.trip.count
  br i1 %exitcond.not, label %._crit_edge, label %.lr.ph, !llvm.loop !10

._crit_edge:                                      ; preds = %27, %15
  %29 = sext i32 %8 to i64
  %30 = getelementptr inbounds i8, ptr %.026, i64 %29
  store i8 0, ptr %30, align 1
  br label %31

31:                                               ; preds = %10, %3, %._crit_edge
  %.0 = phi ptr [ %.026, %._crit_edge ], [ null, %3 ], [ null, %10 ]
  ret ptr %.0
}